target datalayout = "e-m:e-p270:32:32-p271:32:32-p272:64:64-i64:64-i128:128-f80:128-n8:16:32:64-S128"
target triple = "x86_64-pc-linux-gnu"

%"class.icu_77::UnicodeString" = type { %"class.icu_77::Replaceable", %"union.icu_77::UnicodeString::StackBufferOrFields" }
%"class.icu_77::Replaceable" = type { %"class.icu_77::UObject" }
%"class.icu_77::UObject" = type { ptr }
%"union.icu_77::UnicodeString::StackBufferOrFields" = type { %struct.anon.0, [32 x i8] }
%struct.anon.0 = type { i16, i32, i32, ptr }
%"class.icu_77::Locale" = type <{ %"class.icu_77::UObject", [12 x i8], [6 x i8], [4 x i8], [2 x i8], i32, [4 x i8], ptr, [157 x i8], [3 x i8], ptr, i8, [7 x i8] }>
%"class.icu_77::LocalPointer.8" = type { %"class.icu_77::LocalPointerBase.9" }
%"class.icu_77::LocalPointerBase.9" = type { ptr }
%"class.icu_77::DecimalFormat" = type { %"class.icu_77::NumberFormat.base", ptr }
%"class.icu_77::NumberFormat.base" = type <{ %"class.icu_77::Format", i8, [3 x i8], i32, i32, i32, i32, i8, i8, [4 x i16], [2 x i8], i32 }>
%"class.icu_77::Format" = type { %"class.icu_77::UObject", ptr, ptr }
%"struct.icu_77::number::impl::DecimalFormatFields" = type <{ [8 x i8], %"struct.icu_77::number::impl::DecimalFormatProperties", %"class.icu_77::LocalPointer.8", %"class.icu_77::number::LocalizedNumberFormatter", %"struct.std::atomic", %"struct.std::atomic", %"struct.icu_77::number::impl::DecimalFormatWarehouse", %"struct.icu_77::number::impl::DecimalFormatProperties", i8, i8, %"struct.icu_77::number::impl::DecimalFormatFields::FastFormatData", [6 x i8] }>
%"class.icu_77::number::LocalizedNumberFormatter" = type { %"class.icu_77::number::NumberFormatterSettings", ptr, [8 x i8], ptr }
%"class.icu_77::number::NumberFormatterSettings" = type { %"struct.icu_77::number::impl::MacroProps" }
%"struct.icu_77::number::impl::MacroProps" = type { [4 x i8], %"class.icu_77::number::Notation", %"class.icu_77::MeasureUnit", %"class.icu_77::MeasureUnit", %"class.icu_77::number::Precision", i32, %"class.icu_77::number::impl::Grouper", %"class.icu_77::number::impl::Padder", %"class.icu_77::number::IntegerWidth", %"class.icu_77::number::impl::SymbolsWrapper", i32, i32, i8, i32, %"class.icu_77::number::Scale", %"class.icu_77::number::impl::StringProp", %"class.icu_77::number::impl::StringProp", ptr, ptr, i32, [4 x i8], %"class.icu_77::Locale" }
%"class.icu_77::number::Notation" = type { i32, %"union.icu_77::number::Notation::NotationUnion" }
%"union.icu_77::number::Notation::NotationUnion" = type { %"struct.icu_77::number::Notation::NotationUnion::ScientificSettings" }
%"struct.icu_77::number::Notation::NotationUnion::ScientificSettings" = type { i8, i8, i16, i32 }
%"class.icu_77::MeasureUnit" = type <{ %"class.icu_77::UObject", ptr, i16, i8, [5 x i8] }>
%"class.icu_77::number::Precision" = type <{ i32, [4 x i8], %"union.icu_77::number::Precision::PrecisionUnion", i32, [4 x i8] }>
%"union.icu_77::number::Precision::PrecisionUnion" = type { %"struct.icu_77::number::Precision::PrecisionUnion::IncrementSettings" }
%"struct.icu_77::number::Precision::PrecisionUnion::IncrementSettings" = type { i64, i16, i16 }
%"class.icu_77::number::impl::Grouper" = type { i16, i16, i16, i32 }
%"class.icu_77::number::impl::Padder" = type { i32, %union.anon }
%union.anon = type { %struct.anon.10 }
%struct.anon.10 = type { i32, i32 }
%"class.icu_77::number::IntegerWidth" = type <{ %union.anon.11, i8, [3 x i8] }>
%union.anon.11 = type { i32, [4 x i8] }
%"class.icu_77::number::impl::SymbolsWrapper" = type { i32, %union.anon.13 }
%union.anon.13 = type { ptr }
%"class.icu_77::number::Scale" = type <{ i32, [4 x i8], ptr, i32, [4 x i8] }>
%"class.icu_77::number::impl::StringProp" = type { ptr, i16, i32 }
%"struct.std::atomic" = type { %"struct.std::__atomic_base" }
%"struct.std::__atomic_base" = type { ptr }
%"struct.icu_77::number::impl::DecimalFormatWarehouse" = type { [8 x i8], %"class.icu_77::number::impl::AutoAffixPatternProvider", %"class.icu_77::LocalPointer.14" }
%"class.icu_77::number::impl::AutoAffixPatternProvider" = type { %"class.icu_77::number::impl::PropertiesAffixPatternProvider", %"class.icu_77::number::impl::CurrencyPluralInfoAffixProvider" }
%"class.icu_77::number::impl::PropertiesAffixPatternProvider" = type <{ %"class.icu_77::number::impl::AffixPatternProvider", %"class.icu_77::UnicodeString", %"class.icu_77::UnicodeString", %"class.icu_77::UnicodeString", %"class.icu_77::UnicodeString", i8, i8, i8, [5 x i8] }>
%"class.icu_77::number::impl::AffixPatternProvider" = type { ptr }
%"class.icu_77::number::impl::CurrencyPluralInfoAffixProvider" = type <{ %"class.icu_77::number::impl::AffixPatternProvider", [8 x %"class.icu_77::number::impl::PropertiesAffixPatternProvider"], i8, [7 x i8] }>
%"class.icu_77::LocalPointer.14" = type { %"class.icu_77::LocalPointerBase.15" }
%"class.icu_77::LocalPointerBase.15" = type { ptr }
%"struct.icu_77::number::impl::DecimalFormatProperties" = type <{ %"class.icu_77::number::impl::NullableValue", %"class.icu_77::number::impl::NullableValue.3", %"class.icu_77::number::impl::CurrencyPluralInfoWrapper", %"class.icu_77::number::impl::NullableValue.4", i8, i8, i8, i8, i8, [3 x i8], i32, i32, i8, [3 x i8], i32, i32, i32, i32, i32, i32, i32, i32, i32, i32, i32, %"class.icu_77::UnicodeString", %"class.icu_77::UnicodeString", %"class.icu_77::UnicodeString", %"class.icu_77::UnicodeString", %"class.icu_77::number::impl::NullableValue.5", %"class.icu_77::UnicodeString", i8, i8, [2 x i8], %"class.icu_77::number::impl::NullableValue.6", i8, i8, [2 x i8], i32, [4 x i8], %"class.icu_77::UnicodeString", %"class.icu_77::UnicodeString", %"class.icu_77::UnicodeString", %"class.icu_77::UnicodeString", double, %"class.icu_77::number::impl::NullableValue.7", i32, i8, [3 x i8] }>
%"class.icu_77::number::impl::NullableValue" = type { i8, i32 }
%"class.icu_77::number::impl::NullableValue.3" = type { i8, [7 x i8], %"class.icu_77::CurrencyUnit" }
%"class.icu_77::CurrencyUnit" = type { %"class.icu_77::MeasureUnit.base", [4 x i16], [4 x i8] }
%"class.icu_77::MeasureUnit.base" = type <{ %"class.icu_77::UObject", ptr, i16, i8 }>
%"class.icu_77::number::impl::CurrencyPluralInfoWrapper" = type { %"class.icu_77::LocalPointer.1" }
%"class.icu_77::LocalPointer.1" = type { %"class.icu_77::LocalPointerBase.2" }
%"class.icu_77::LocalPointerBase.2" = type { ptr }
%"class.icu_77::number::impl::NullableValue.4" = type { i8, i32 }
%"class.icu_77::number::impl::NullableValue.5" = type { i8, i32 }
%"class.icu_77::number::impl::NullableValue.6" = type { i8, i32 }
%"class.icu_77::number::impl::NullableValue.7" = type { i8, i32 }
%"struct.icu_77::number::impl::DecimalFormatFields::FastFormatData" = type { i16, i16, i16, i8, i8 }
%"class.icu_77::FormattedValue" = type { ptr }
%"class.icu_77::number::FormattedNumber" = type <{ %"class.icu_77::FormattedValue", ptr, i32, [4 x i8] }>

; Function Attrs: inlinehint mustprogress nounwind uwtable
define internal noundef signext i8 @_ZL9U_FAILURE10UErrorCode(i32 noundef %0) #2 {
  %2 = alloca i32, align 4
  store i32 %0, ptr %2, align 4, !tbaa !15
  %3 = load i32, ptr %2, align 4, !tbaa !15
  %4 = icmp sgt i32 %3, 0
  %5 = zext i1 %4 to i8
  ret i8 %5
}

; Function Attrs: mustprogress uwtable
define void @_ZNK6icu_7713DecimalFormat23formatToDecimalQuantityEdRNS_6number4impl15DecimalQuantityER10UErrorCode(ptr noundef nonnull align 8 dereferenceable(72) %0, double noundef %1, ptr noundef nonnull align 8 dereferenceable(66) %2, ptr noundef nonnull align 4 dereferenceable(4) %3) #1 align 2 personality ptr @__gxx_personality_v0 {
  %5 = alloca ptr, align 8
  %6 = alloca double, align 8
  %7 = alloca ptr, align 8
  %8 = alloca ptr, align 8
  %9 = alloca %"class.icu_77::number::FormattedNumber", align 8
  %10 = alloca ptr, align 8
  %11 = alloca i32, align 4
  store ptr %0, ptr %5, align 8, !tbaa !23
  store double %1, ptr %6, align 8, !tbaa !211
  store ptr %2, ptr %7, align 8, !tbaa !234
  store ptr %3, ptr %8, align 8, !tbaa !22
  %12 = load ptr, ptr %5, align 8
  %13 = load ptr, ptr %8, align 8, !tbaa !22
  %14 = load i32, ptr %13, align 4, !tbaa !15
  %15 = call noundef signext i8 @_ZL9U_FAILURE10UErrorCode(i32 noundef %14)
  %16 = icmp ne i8 %15, 0
  br i1 %16, label %17, label %18

17:                                               ; preds = %4
  br label %33

18:                                               ; preds = %4
  %19 = getelementptr inbounds nuw %"class.icu_77::DecimalFormat", ptr %12, i32 0, i32 1
  %20 = load ptr, ptr %19, align 8, !tbaa !31
  %21 = icmp eq ptr %20, null
  br i1 %21, label %22, label %24

22:                                               ; preds = %18
  %23 = load ptr, ptr %8, align 8, !tbaa !22
  store i32 7, ptr %23, align 4, !tbaa !15
  br label %33

24:                                               ; preds = %18
  call void @llvm.lifetime.start.p0(i64 24, ptr %9) #15
  %25 = getelementptr inbounds nuw %"class.icu_77::DecimalFormat", ptr %12, i32 0, i32 1
  %26 = load ptr, ptr %25, align 8, !tbaa !31
  %27 = getelementptr inbounds nuw %"struct.icu_77::number::impl::DecimalFormatFields", ptr %26, i32 0, i32 3
  %28 = load double, ptr %6, align 8, !tbaa !211
  %29 = load ptr, ptr %8, align 8, !tbaa !22
  call void @_ZNK6icu_776number24LocalizedNumberFormatter12formatDoubleEdR10UErrorCode(ptr dead_on_unwind writable sret(%"class.icu_77::number::FormattedNumber") align 8 %9, ptr noundef nonnull align 8 dereferenceable(496) %27, double noundef %28, ptr noundef nonnull align 4 dereferenceable(4) %29)
  %30 = load ptr, ptr %7, align 8, !tbaa !234
  %31 = load ptr, ptr %8, align 8, !tbaa !22
  invoke void @_ZNK6icu_776number15FormattedNumber18getDecimalQuantityERNS0_4impl15DecimalQuantityER10UErrorCode(ptr noundef nonnull align 8 dereferenceable(20) %9, ptr noundef nonnull align 8 dereferenceable(66) %30, ptr noundef nonnull align 4 dereferenceable(4) %31)
          to label %32 unwind label %34

32:                                               ; preds = %24
  call void @_ZN6icu_776number15FormattedNumberD1Ev(ptr noundef nonnull align 8 dereferenceable(20) %9) #15
  call void @llvm.lifetime.end.p0(i64 24, ptr %9) #15
  br label %33

33:                                               ; preds = %32, %22, %17
  ret void

34:                                               ; preds = %24
  %35 = landingpad { ptr, i32 }
          cleanup
  %36 = extractvalue { ptr, i32 } %35, 0
  store ptr %36, ptr %10, align 8
  %37 = extractvalue { ptr, i32 } %35, 1
  store i32 %37, ptr %11, align 4
  call void @_ZN6icu_776number15FormattedNumberD1Ev(ptr noundef nonnull align 8 dereferenceable(20) %9) #15
  call void @llvm.lifetime.end.p0(i64 24, ptr %9) #15
  br label %38

38:                                               ; preds = %34
  %39 = load ptr, ptr %10, align 8
  %40 = load i32, ptr %11, align 4
  %41 = insertvalue { ptr, i32 } poison, ptr %39, 0
  %42 = insertvalue { ptr, i32 } %41, i32 %40, 1
  resume { ptr, i32 } %42
}