; Function Attrs: mustprogress uwtable
define void @_ZNK6icu_7713DecimalFormat23formatToDecimalQuantityEdRNS_6number4impl15DecimalQuantityER10UErrorCode(ptr noundef nonnull readonly align 8 captures(none) dereferenceable(72) %0, double noundef %1, ptr noundef nonnull align 8 dereferenceable(66) %2, ptr noundef nonnull align 4 dereferenceable(4) %3) local_unnamed_addr #1 align 2 personality ptr @__gxx_personality_v0 {
  %5 = alloca %"class.icu_77::number::FormattedNumber", align 8
  %6 = load i32, ptr %3, align 4, !tbaa !13
  %7 = icmp slt i32 %6, 1
  br i1 %7, label %8, label %16

8:                                                ; preds = %4
  %9 = getelementptr inbounds nuw i8, ptr %0, i64 64
  %10 = load ptr, ptr %9, align 8, !tbaa !25
  %11 = icmp eq ptr %10, null
  br i1 %11, label %12, label %13

12:                                               ; preds = %8
  store i32 7, ptr %3, align 4, !tbaa !13
  br label %16

13:                                               ; preds = %8
  call void @llvm.lifetime.start.p0(i64 24, ptr nonnull %5) #19
  %14 = getelementptr inbounds nuw i8, ptr %10, i64 776
  call void @_ZNK6icu_776number24LocalizedNumberFormatter12formatDoubleEdR10UErrorCode(ptr dead_on_unwind nonnull writable sret(%"class.icu_77::number::FormattedNumber") align 8 %5, ptr noundef nonnull align 8 dereferenceable(496) %14, double noundef %1, ptr noundef nonnull align 4 dereferenceable(4) %3)
  invoke void @_ZNK6icu_776number15FormattedNumber18getDecimalQuantityERNS0_4impl15DecimalQuantityER10UErrorCode(ptr noundef nonnull align 8 dereferenceable(20) %5, ptr noundef nonnull align 8 dereferenceable(66) %2, ptr noundef nonnull align 4 dereferenceable(4) %3)
          to label %15 unwind label %17

15:                                               ; preds = %13
  call void @_ZN6icu_776number15FormattedNumberD1Ev(ptr noundef nonnull align 8 dereferenceable(20) %5) #19
  call void @llvm.lifetime.end.p0(i64 24, ptr nonnull %5) #19
  br label %16

16:                                               ; preds = %4, %15, %12
  ret void

17:                                               ; preds = %13
  %18 = landingpad { ptr, i32 }
          cleanup
  call void @_ZN6icu_776number15FormattedNumberD1Ev(ptr noundef nonnull align 8 dereferenceable(20) %5) #19
  call void @llvm.lifetime.end.p0(i64 24, ptr nonnull %5) #19
  resume { ptr, i32 } %18
}